; ModuleID = '52/1256.c'
source_filename = "52/1256.c"
target datalayout = "e-m:e-p270:32:32-p271:32:32-p272:64:64-i64:64-f80:128-n8:16:32:64-S128"
target triple = "x86_64-pc-linux-gnu"

@.str = private unnamed_addr constant [5 x i8] c"%d%d\00", align 1
@.str.1 = private unnamed_addr constant [3 x i8] c"%d\00", align 1
@.str.2 = private unnamed_addr constant [4 x i8] c"%d \00", align 1
@.str.3 = private unnamed_addr constant [2 x i8] c" \00", align 1

; Function Attrs: noinline nounwind uwtable
define dso_local void @main() #0 {
  %1 = alloca i32, align 4
  %2 = alloca i32, align 4
  %3 = alloca i32*, align 8
  %4 = alloca i32, align 4
  %5 = alloca i32*, align 8
  %6 = alloca [100 x i32], align 16
  %7 = call i32 (i8*, ...) @__isoc99_scanf(i8* getelementptr inbounds ([5 x i8], [5 x i8]* @.str, i64 0, i64 0), i32* %1, i32* %2)
  store i32 0, i32* %4, align 4
  br label %8

8:                                                ; preds = %15, %0
  %9 = load i32, i32* %4, align 4
  %10 = icmp slt i32 %9, 100
  br i1 %10, label %11, label %18

11:                                               ; preds = %8
  %12 = load i32, i32* %4, align 4
  %13 = sext i32 %12 to i64
  %14 = getelementptr inbounds [100 x i32], [100 x i32]* %6, i64 0, i64 %13
  store i32 -1, i32* %14, align 4
  br label %15

15:                                               ; preds = %11
  %16 = load i32, i32* %4, align 4
  %17 = add nsw i32 %16, 1
  store i32 %17, i32* %4, align 4
  br label %8

18:                                               ; preds = %8
  store i32 0, i32* %4, align 4
  br label %19

19:                                               ; preds = %28, %18
  %20 = load i32, i32* %4, align 4
  %21 = load i32, i32* %1, align 4
  %22 = icmp slt i32 %20, %21
  br i1 %22, label %23, label %31

23:                                               ; preds = %19
  %24 = load i32, i32* %4, align 4
  %25 = sext i32 %24 to i64
  %26 = getelementptr inbounds [100 x i32], [100 x i32]* %6, i64 0, i64 %25
  %27 = call i32 (i8*, ...) @__isoc99_scanf(i8* getelementptr inbounds ([3 x i8], [3 x i8]* @.str.1, i64 0, i64 0), i32* %26)
  br label %28

28:                                               ; preds = %23
  %29 = load i32, i32* %4, align 4
  %30 = add nsw i32 %29, 1
  store i32 %30, i32* %4, align 4
  br label %19

31:                                               ; preds = %19
  %32 = getelementptr inbounds [100 x i32], [100 x i32]* %6, i64 0, i64 0
  %33 = load i32, i32* %1, align 4
  %34 = sext i32 %33 to i64
  %35 = getelementptr inbounds i32, i32* %32, i64 %34
  %36 = load i32, i32* %2, align 4
  %37 = sext i32 %36 to i64
  %38 = sub i64 0, %37
  %39 = getelementptr inbounds i32, i32* %35, i64 %38
  store i32* %39, i32** %5, align 8
  %40 = load i32*, i32** %5, align 8
  store i32* %40, i32** %3, align 8
  br label %41

41:                                               ; preds = %49, %31
  %42 = load i32*, i32** %3, align 8
  %43 = load i32, i32* %42, align 4
  %44 = icmp ne i32 %43, -1
  br i1 %44, label %45, label %52

45:                                               ; preds = %41
  %46 = load i32*, i32** %3, align 8
  %47 = load i32, i32* %46, align 4
  %48 = call i32 (i8*, ...) @printf(i8* getelementptr inbounds ([4 x i8], [4 x i8]* @.str.2, i64 0, i64 0), i32 %47)
  br label %49

49:                                               ; preds = %45
  %50 = load i32*, i32** %3, align 8
  %51 = getelementptr inbounds i32, i32* %50, i32 1
  store i32* %51, i32** %3, align 8
  br label %41

52:                                               ; preds = %41
  %53 = getelementptr inbounds [100 x i32], [100 x i32]* %6, i64 0, i64 0
  store i32* %53, i32** %3, align 8
  br label %54

54:                                               ; preds = %69, %52
  %55 = load i32*, i32** %3, align 8
  %56 = load i32*, i32** %5, align 8
  %57 = icmp ne i32* %55, %56
  br i1 %57, label %58, label %72

58:                                               ; preds = %54
  %59 = load i32*, i32** %3, align 8
  %60 = load i32, i32* %59, align 4
  %61 = call i32 (i8*, ...) @printf(i8* getelementptr inbounds ([3 x i8], [3 x i8]* @.str.1, i64 0, i64 0), i32 %60)
  %62 = load i32*, i32** %3, align 8
  %63 = getelementptr inbounds i32, i32* %62, i64 1
  %64 = load i32*, i32** %5, align 8
  %65 = icmp ne i32* %63, %64
  br i1 %65, label %66, label %68

66:                                               ; preds = %58
  %67 = call i32 (i8*, ...) @printf(i8* getelementptr inbounds ([2 x i8], [2 x i8]* @.str.3, i64 0, i64 0))
  br label %68

68:                                               ; preds = %66, %58
  br label %69

69:                                               ; preds = %68
  %70 = load i32*, i32** %3, align 8
  %71 = getelementptr inbounds i32, i32* %70, i32 1
  store i32* %71, i32** %3, align 8
  br label %54

72:                                               ; preds = %54
  ret void
}

declare dso_local i32 @__isoc99_scanf(i8*, ...) #1

declare dso_local i32 @printf(i8*, ...) #1


!llvm.module.flags = !{!0}
!llvm.ident = !{!1}

!0 = !{i32 1, !"wchar_size", i32 4}
!1 = !{!"clang version 10.0.0-4ubuntu1 "}
